-----BEGIN CERTIFICATE-----
MIIF5jCCA86gAwIBAgIBATANBgkqhkiG9w0BAQUFADCBgzELMAkGA1UEBhMCVVMx
HTAbBgNVBAoTFEFPTCBUaW1lIFdhcm5lciBJbmMuMRwwGgYDVQQLExNBbWVyaWNh
IE9ubGluZSBJbmMuMTcwNQYDVQQDEy5BT0wgVGltZSBXYXJuZXIgUm9vdCBDZXJ0
aWZpY2F0aW9uIEF1dGhvcml0eSAyMB4XDTAyMDUyOTA2MDAwMFoXDTM3MDkyODIz
NDMwMFowgYMxCzAJBgNVBAYTAlVTMR0wGwYDVQQKExRBT0wgVGltZSBXYXJuZXIg
SW5jLjEcMBoGA1UECxMTQW1lcmljYSBPbmxpbmUgSW5jLjE3MDUGA1UEAxMuQU9M
IFRpbWUgV2FybmVyIFJvb3QgQ2VydGlmaWNhdGlvbiBBdXRob3JpdHkgMjCCAiIw
DQYJKoZIhvcNAQEBBQADggIPADCCAgoCggIBALQ3WggWmRToVbEbJGv8x4vmh6mJ
7ouZzU9AhqS2TcnZsdw8TQ2FTBVsRotSeJ/4I/1n9SQ6aF3Q92RhQVSji6UI0ilb
m2BPJoPRYxJWSXakFsKlnUWsi4SVqBax7J/qJBrvuVdcmiQhLE0OcR+mrF1FdAOY
xFSMFkpBd4aVdQxHAWZg/BXxD+r1FHjHDtdugRxev17nOirYlxcwfACtCJ0zr7iZ
YYCLqJV+FNwSbKTQ2O9ASQI2+W6p1h2WVgSysy0WVoaP2SBXgM1nEG2wTPDaRrbq
JS5Gr42whTg0ixQmgiusrpkLjhTXUr2eacOGAgvqdnUxCc4zGSGFQ+aJLZ8lN2fx
I2rSAG2X+Z/nKcrdH9cG6rjJuQkhn8g/BsXS6RJGAE57COtCPStIbp1n3UsC5ETz
kxmlJ85per5n0/xQpCyrw2u544BMzwVhSyvcG7mm0tCq9Stz+86QNZ8MUhy/XCFh
EVsVS6kkUfykXPcXnbDS+gfpj1bkGoxoigTTfFrjnqKhynFbotSg5ymFXQNoKk/S
Btc9+cMDLz9l+WceR0DTYw/j1Y75hauXTLPXJuuWCpTehTacyH+BCQJJKg71ZDIM
gtG6aoIbs0t0EfOMd9afv9w3pKdVBC/UMejTRrkDfNoSTllkt1ExMVCgyhwn2RAu
rda9EGYrw7AiShJbAgMBAAGjYzBhMA8GA1UdEwEB/wQFMAMBAf8wHQYDVR0OBBYE
FE9pbQN+nZ8HGEO8txBO1b+pxCAoMB8GA1UdIwQYMBaAFE9pbQN+nZ8HGEO8txBO
1b+pxCAoMA4GA1UdDwEB/wQEAwIBhjANBgkqhkiG9w0BAQUFAAOCAgEAO/Ouyugu
h4X7ZVnnrREUpVe8WJ8kEle7+z802u6teio0cnAxa8cZmIDJgt43d15Ui47y6mdP
yXSEkVYJ1eV6moG2gcKtNuTxVBFT8zRFASbI5Rq8NEQh3q0l/HYWdyGQgJhXnU7q
7C+qPBR7V8F+GBRn7iTGvboVsNIYvbdVgaxTwOjdaRITQrcCtQVBynlQboIOcXKT
RuidDV29rs4prWPVVRaAMCf/drr3uNZK49m1+VLQTkCpx+XCMseqdiThawVQ68W/
ClTluUI8JPu3B5wwn3la5uBAUhX0/Kr0VvlEl4ftDmVyXr4m+02kLQgH3thcoNyB
M5kYJRF3p+v9WAksmWsbivNSPxpNSGDxoPYzAlOL7SUJuA0t7Zdz7NeWH45gDtoQ
my8YJPamTQr5O8t1wswvziRpyQoijlmn94IM19drNZxDAGrElWe6nEXLuA4399xO
AU++CrYD062KRffaJ00psUjf5BHklka9bAI+1lHIlRcBFanyqqryvy9lG2/QuRqT
9Y41xICHPpQvZuTpqP9BnHAqTyo5GJUefvthATxRCC4oGKQWDzH9OmwjkyB24f0H
hdFbP9IcczLd+rn4jM8Ch3qaluTtT4mNU0OrDhPAARW0eTjb/G49nlG2uBOLZ8/5
fNkiHfZdxRwBL5joeiQYvITX+txyW/fBOmg=
-----END CERTIFICATE-----
Certificate:
    Data:
        Version: 3 (0x2)
        Serial Number: 1 (0x1)
        Signature Algorithm: sha1WithRSAEncryption
        Issuer: C=US, O=AOL Time Warner Inc., OU=America Online Inc., CN=AOL Time Warner Root Certification Authority 2
        Validity
            Not Before: May 29 06:00:00 2002 GMT
            Not After : Sep 28 23:43:00 2037 GMT
        Subject: C=US, O=AOL Time Warner Inc., OU=America Online Inc., CN=AOL Time Warner Root Certification Authority 2
        Subject Public Key Info:
            Public Key Algorithm: rsaEncryption
            RSA Public Key: (4096 bit)
                Modulus (4096 bit):
                    00:b4:37:5a:08:16:99:14:e8:55:b1:1b:24:6b:fc:
                    c7:8b:e6:87:a9:89:ee:8b:99:cd:4f:40:86:a4:b6:
                    4d:c9:d9:b1:dc:3c:4d:0d:85:4c:15:6c:46:8b:52:
                    78:9f:f8:23:fd:67:f5:24:3a:68:5d:d0:f7:64:61:
                    41:54:a3:8b:a5:08:d2:29:5b:9b:60:4f:26:83:d1:
                    63:12:56:49:76:a4:16:c2:a5:9d:45:ac:8b:84:95:
                    a8:16:b1:ec:9f:ea:24:1a:ef:b9:57:5c:9a:24:21:
                    2c:4d:0e:71:1f:a6:ac:5d:45:74:03:98:c4:54:8c:
                    16:4a:41:77:86:95:75:0c:47:01:66:60:fc:15:f1:
                    0f:ea:f5:14:78:c7:0e:d7:6e:81:1c:5e:bf:5e:e7:
                    3a:2a:d8:97:17:30:7c:00:ad:08:9d:33:af:b8:99:
                    61:80:8b:a8:95:7e:14:dc:12:6c:a4:d0:d8:ef:40:
                    49:02:36:f9:6e:a9:d6:1d:96:56:04:b2:b3:2d:16:
                    56:86:8f:d9:20:57:80:cd:67:10:6d:b0:4c:f0:da:
                    46:b6:ea:25:2e:46:af:8d:b0:85:38:34:8b:14:26:
                    82:2b:ac:ae:99:0b:8e:14:d7:52:bd:9e:69:c3:86:
                    02:0b:ea:76:75:31:09:ce:33:19:21:85:43:e6:89:
                    2d:9f:25:37:67:f1:23:6a:d2:00:6d:97:f9:9f:e7:
                    29:ca:dd:1f:d7:06:ea:b8:c9:b9:09:21:9f:c8:3f:
                    06:c5:d2:e9:12:46:00:4e:7b:08:eb:42:3d:2b:48:
                    6e:9d:67:dd:4b:02:e4:44:f3:93:19:a5:27:ce:69:
                    7a:be:67:d3:fc:50:a4:2c:ab:c3:6b:b9:e3:80:4c:
                    cf:05:61:4b:2b:dc:1b:b9:a6:d2:d0:aa:f5:2b:73:
                    fb:ce:90:35:9f:0c:52:1c:bf:5c:21:61:11:5b:15:
                    4b:a9:24:51:fc:a4:5c:f7:17:9d:b0:d2:fa:07:e9:
                    8f:56:e4:1a:8c:68:8a:04:d3:7c:5a:e3:9e:a2:a1:
                    ca:71:5b:a2:d4:a0:e7:29:85:5d:03:68:2a:4f:d2:
                    06:d7:3d:f9:c3:03:2f:3f:65:f9:67:1e:47:40:d3:
                    63:0f:e3:d5:8e:f9:85:ab:97:4c:b3:d7:26:eb:96:
                    0a:94:de:85:36:9c:c8:7f:81:09:02:49:2a:0e:f5:
                    64:32:0c:82:d1:ba:6a:82:1b:b3:4b:74:11:f3:8c:
                    77:d6:9f:bf:dc:37:a4:a7:55:04:2f:d4:31:e8:d3:
                    46:b9:03:7c:da:12:4e:59:64:b7:51:31:31:50:a0:
                    ca:1c:27:d9:10:2e:ad:d6:bd:10:66:2b:c3:b0:22:
                    4a:12:5b
                Exponent: 65537 (0x10001)
        X509v3 extensions:
            X509v3 Basic Constraints: critical
                CA:TRUE
            X509v3 Subject Key Identifier: 
                4F:69:6D:03:7E:9D:9F:07:18:43:BC:B7:10:4E:D5:BF:A9:C4:20:28
            X509v3 Authority Key Identifier: 
                keyid:4F:69:6D:03:7E:9D:9F:07:18:43:BC:B7:10:4E:D5:BF:A9:C4:20:28

            X509v3 Key Usage: critical
                Digital Signature, Certificate Sign, CRL Sign
    Signature Algorithm: sha1WithRSAEncryption
        3b:f3:ae:ca:e8:2e:87:85:fb:65:59:e7:ad:11:14:a5:57:bc:
        58:9f:24:12:57:bb:fb:3f:34:da:ee:ad:7a:2a:34:72:70:31:
        6b:c7:19:98:80:c9:82:de:37:77:5e:54:8b:8e:f2:ea:67:4f:
        c9:74:84:91:56:09:d5:e5:7a:9a:81:b6:81:c2:ad:36:e4:f1:
        54:11:53:f3:34:45:01:26:c8:e5:1a:bc:34:44:21:de:ad:25:
        fc:76:16:77:21:90:80:98:57:9d:4e:ea:ec:2f:aa:3c:14:7b:
        57:c1:7e:18:14:67:ee:24:c6:bd:ba:15:b0:d2:18:bd:b7:55:
        81:ac:53:c0:e8:dd:69:12:13:42:b7:02:b5:05:41:ca:79:50:
        6e:82:0e:71:72:93:46:e8:9d:0d:5d:bd:ae:ce:29:ad:63:d5:
        55:16:80:30:27:ff:76:ba:f7:b8:d6:4a:e3:d9:b5:f9:52:d0:
        4e:40:a9:c7:e5:c2:32:c7:aa:76:24:e1:6b:05:50:eb:c5:bf:
        0a:54:e5:b9:42:3c:24:fb:b7:07:9c:30:9f:79:5a:e6:e0:40:
        52:15:f4:fc:aa:f4:56:f9:44:97:87:ed:0e:65:72:5e:be:26:
        fb:4d:a4:2d:08:07:de:d8:5c:a0:dc:81:33:99:18:25:11:77:
        a7:eb:fd:58:09:2c:99:6b:1b:8a:f3:52:3f:1a:4d:48:60:f1:
        a0:f6:33:02:53:8b:ed:25:09:b8:0d:2d:ed:97:73:ec:d7:96:
        1f:8e:60:0e:da:10:9b:2f:18:24:f6:a6:4d:0a:f9:3b:cb:75:
        c2:cc:2f:ce:24:69:c9:0a:22:8e:59:a7:f7:82:0c:d7:d7:6b:
        35:9c:43:00:6a:c4:95:67:ba:9c:45:cb:b8:0e:37:f7:dc:4e:
        01:4f:be:0a:b6:03:d3:ad:8a:45:f7:da:27:4d:29:b1:48:df:
        e4:11:e4:96:46:bd:6c:02:3e:d6:51:c8:95:17:01:15:a9:f2:
        aa:aa:f2:bf:2f:65:1b:6f:d0:b9:1a:93:f5:8e:35:c4:80:87:
        3e:94:2f:66:e4:e9:a8:ff:41:9c:70:2a:4f:2a:39:18:95:1e:
        7e:fb:61:01:3c:51:08:2e:28:18:a4:16:0f:31:fd:3a:6c:23:
        93:20:76:e1:fd:07:85:d1:5b:3f:d2:1c:73:32:dd:fa:b9:f8:
        8c:cf:02:87:7a:9a:96:e4:ed:4f:89:8d:53:43:ab:0e:13:c0:
        01:15:b4:79:38:db:fc:6e:3d:9e:51:b6:b8:13:8b:67:cf:f9:
        7c:d9:22:1d:f6:5d:c5:1c:01:2f:98:e8:7a:24:18:bc:84:d7:
        fa:dc:72:5b:f7:c1:3a:68
SHA1 Fingerprint=FC:21:9A:76:11:2F:76:C1:C5:08:83:3C:9A:2F:A2:BA:84:AC:08:7A
