-----BEGIN CERTIFICATE-----
MIID5jCCAs6gAwIBAgIBATANBgkqhkiG9w0BAQUFADCBgzELMAkGA1UEBhMCVVMx
HTAbBgNVBAoTFEFPTCBUaW1lIFdhcm5lciBJbmMuMRwwGgYDVQQLExNBbWVyaWNh
IE9ubGluZSBJbmMuMTcwNQYDVQQDEy5BT0wgVGltZSBXYXJuZXIgUm9vdCBDZXJ0
aWZpY2F0aW9uIEF1dGhvcml0eSAxMB4XDTAyMDUyOTA2MDAwMFoXDTM3MTEyMDE1
MDMwMFowgYMxCzAJBgNVBAYTAlVTMR0wGwYDVQQKExRBT0wgVGltZSBXYXJuZXIg
SW5jLjEcMBoGA1UECxMTQW1lcmljYSBPbmxpbmUgSW5jLjE3MDUGA1UEAxMuQU9M
IFRpbWUgV2FybmVyIFJvb3QgQ2VydGlmaWNhdGlvbiBBdXRob3JpdHkgMTCCASIw
DQYJKoZIhvcNAQEBBQADggEPADCCAQoCggEBAJnej8Mlo2k06AX3dLm/WpcZuS+U
0pPlLYnKhHw/EEMbjIt8hFj4JHxIzyr9wBXZGH6EGhfT257XyuTZ16pYUYfw8ItI
TuLCxFlpMGK2MKKMCxGZYTVtfu/FsRkGIBKOQuHfD5YQUqjPnF+VFNivO3ULMSAf
RC+iYkGzuxgh28pxPIzstrkNn+9R7017EvILDOGsQI93f7DKeHEMXRZxcKLXwjqF
zQ6axOAAsNUl6twr5JQtOJyJQVdkKGUZHLZEtMgxa44Be3ZZJX8VHIQIfHNlIAqh
BC4aMqiaILGcLCFZ5/vP7nAtCMpjPiybkxlqpMKX/7eGV4iFbJ4VFitNLLMCAwEA
AaNjMGEwDwYDVR0TAQH/BAUwAwEB/zAdBgNVHQ4EFgQUoTYwFsuGkABFgFOxj8jY
PXy+XxIwHwYDVR0jBBgwFoAUoTYwFsuGkABFgFOxj8jYPXy+XxIwDgYDVR0PAQH/
BAQDAgGGMA0GCSqGSIb3DQEBBQUAA4IBAQCKIBilvrMvtKaEAEAwKfq0FHNMeUWn
9nDg6H5kHgqVfGphwu9OH77/yZkfB2FK4V1Mza3u0FIy2VkyvNp5ctZ7CegCgTXT
Ct8RHcl5oIBN/lrXVtbtDyqvpxh1MwzqwWEFT2qaifKNuZ8u77BfWgDrvq2g+EQF
Z7zLBO+eZMXpyD8Fv8YvBxzDNnGGyjhmSs3WuEvGbKeXO/oTLW4jYYehY0KswsuX
n2Fozy1MBJ3XJU8KDk2QixhWqJNIV9xvrr2eZ1d3iVCzvhGbRWeDhhmH05i9CBoW
H1iCC+GWaQVLjuyDUTEH1dSf/1l7qG6Fz9NLqUmwX7A5KGgOc90lmt4S
-----END CERTIFICATE-----
Certificate:
    Data:
        Version: 3 (0x2)
        Serial Number: 1 (0x1)
        Signature Algorithm: sha1WithRSAEncryption
        Issuer: C=US, O=AOL Time Warner Inc., OU=America Online Inc., CN=AOL Time Warner Root Certification Authority 1
        Validity
            Not Before: May 29 06:00:00 2002 GMT
            Not After : Nov 20 15:03:00 2037 GMT
        Subject: C=US, O=AOL Time Warner Inc., OU=America Online Inc., CN=AOL Time Warner Root Certification Authority 1
        Subject Public Key Info:
            Public Key Algorithm: rsaEncryption
            RSA Public Key: (2048 bit)
                Modulus (2048 bit):
                    00:99:de:8f:c3:25:a3:69:34:e8:05:f7:74:b9:bf:
                    5a:97:19:b9:2f:94:d2:93:e5:2d:89:ca:84:7c:3f:
                    10:43:1b:8c:8b:7c:84:58:f8:24:7c:48:cf:2a:fd:
                    c0:15:d9:18:7e:84:1a:17:d3:db:9e:d7:ca:e4:d9:
                    d7:aa:58:51:87:f0:f0:8b:48:4e:e2:c2:c4:59:69:
                    30:62:b6:30:a2:8c:0b:11:99:61:35:6d:7e:ef:c5:
                    b1:19:06:20:12:8e:42:e1:df:0f:96:10:52:a8:cf:
                    9c:5f:95:14:d8:af:3b:75:0b:31:20:1f:44:2f:a2:
                    62:41:b3:bb:18:21:db:ca:71:3c:8c:ec:b6:b9:0d:
                    9f:ef:51:ef:4d:7b:12:f2:0b:0c:e1:ac:40:8f:77:
                    7f:b0:ca:78:71:0c:5d:16:71:70:a2:d7:c2:3a:85:
                    cd:0e:9a:c4:e0:00:b0:d5:25:ea:dc:2b:e4:94:2d:
                    38:9c:89:41:57:64:28:65:19:1c:b6:44:b4:c8:31:
                    6b:8e:01:7b:76:59:25:7f:15:1c:84:08:7c:73:65:
                    20:0a:a1:04:2e:1a:32:a8:9a:20:b1:9c:2c:21:59:
                    e7:fb:cf:ee:70:2d:08:ca:63:3e:2c:9b:93:19:6a:
                    a4:c2:97:ff:b7:86:57:88:85:6c:9e:15:16:2b:4d:
                    2c:b3
                Exponent: 65537 (0x10001)
        X509v3 extensions:
            X509v3 Basic Constraints: critical
                CA:TRUE
            X509v3 Subject Key Identifier: 
                A1:36:30:16:CB:86:90:00:45:80:53:B1:8F:C8:D8:3D:7C:BE:5F:12
            X509v3 Authority Key Identifier: 
                keyid:A1:36:30:16:CB:86:90:00:45:80:53:B1:8F:C8:D8:3D:7C:BE:5F:12

            X509v3 Key Usage: critical
                Digital Signature, Certificate Sign, CRL Sign
    Signature Algorithm: sha1WithRSAEncryption
        8a:20:18:a5:be:b3:2f:b4:a6:84:00:40:30:29:fa:b4:14:73:
        4c:79:45:a7:f6:70:e0:e8:7e:64:1e:0a:95:7c:6a:61:c2:ef:
        4e:1f:be:ff:c9:99:1f:07:61:4a:e1:5d:4c:cd:ad:ee:d0:52:
        32:d9:59:32:bc:da:79:72:d6:7b:09:e8:02:81:35:d3:0a:df:
        11:1d:c9:79:a0:80:4d:fe:5a:d7:56:d6:ed:0f:2a:af:a7:18:
        75:33:0c:ea:c1:61:05:4f:6a:9a:89:f2:8d:b9:9f:2e:ef:b0:
        5f:5a:00:eb:be:ad:a0:f8:44:05:67:bc:cb:04:ef:9e:64:c5:
        e9:c8:3f:05:bf:c6:2f:07:1c:c3:36:71:86:ca:38:66:4a:cd:
        d6:b8:4b:c6:6c:a7:97:3b:fa:13:2d:6e:23:61:87:a1:63:42:
        ac:c2:cb:97:9f:61:68:cf:2d:4c:04:9d:d7:25:4f:0a:0e:4d:
        90:8b:18:56:a8:93:48:57:dc:6f:ae:bd:9e:67:57:77:89:50:
        b3:be:11:9b:45:67:83:86:19:87:d3:98:bd:08:1a:16:1f:58:
        82:0b:e1:96:69:05:4b:8e:ec:83:51:31:07:d5:d4:9f:ff:59:
        7b:a8:6e:85:cf:d3:4b:a9:49:b0:5f:b0:39:28:68:0e:73:dd:
        25:9a:de:12
SHA1 Fingerprint=74:54:53:5C:24:A3:A7:58:20:7E:3E:3E:D3:24:F8:16:FB:21:16:49

