-----BEGIN CERTIFICATE-----
MIIEezCCA+SgAwIBAgIEBycQNTANBgkqhkiG9w0BAQUFADB1MQswCQYDVQQGEwJV
UzEYMBYGA1UEChMPR1RFIENvcnBvcmF0aW9uMScwJQYDVQQLEx5HVEUgQ3liZXJU
cnVzdCBTb2x1dGlvbnMsIEluYy4xIzAhBgNVBAMTGkdURSBDeWJlclRydXN0IEds
b2JhbCBSb290MB4XDTA2MTAyNTEwNTE1NFoXDTEzMTAyNTEwNTEwM1owgYAxCzAJ
BgNVBAYTAlVTMRQwEgYDVQQKEwtXZWxscyBGYXJnbzEsMCoGA1UECxMjV2VsbHMg
RmFyZ28gQ2VydGlmaWNhdGlvbiBBdXRob3JpdHkxLTArBgNVBAMTJFdlbGxzIEZh
cmdvIENlcnRpZmljYXRlIEF1dGhvcml0eSAwMTCCASIwDQYJKoZIhvcNAQEBBQAD
ggEPADCCAQoCggEBAJ0p1bnORROfLC4eARNQVPdhN7BS+HjjKLOjspyTj68aZ1gK
MpJT2xmraO9KOZ7SniDJyWuJWUSWzBG1eTvxE1YRgWe6YWr1R3XHZMGx0WEnLCS7
kLrXPOw3Z+OL8ZEYmknHKpZNlWGF/p/UIPe01U4Dk6YFp33aCUuCHqWNcT0p1y86
WgZpG0XrKY45h7ejZs5kUExabDkgmpzMX0Lioeah9umRVDAvnbXZOvRD2bN9fPJs
lDUvkDW403IYn6OUSQaYH3WJJ+70a1njB91bqQ58A/XubUDCxi5nn1s0yM03hAli
eOmCGUyObOd3QvcmlIKMT9KVaZFJ+SqosYi0lwkCAwEAAaOCAYYwggGCMBIGA1Ud
EwEB/wQIMAYBAf8CAQAwUwYDVR0gBEwwSjBIBgkrBgEEAbE+AQAwOzA5BggrBgEF
BQcCARYtaHR0cDovL3d3dy5wdWJsaWMtdHJ1c3QuY29tL0NQUy9PbW5pUm9vdC5o
dG1sMA4GA1UdDwEB/wQEAwIB5jCBoAYDVR0jBIGYMIGVgBSmDB2fYf8HF7W/OEbb
QzDVjrBSBqF5pHcwdTELMAkGA1UEBhMCVVMxGDAWBgNVBAoTD0dURSBDb3Jwb3Jh
dGlvbjEnMCUGA1UECxMeR1RFIEN5YmVyVHJ1c3QgU29sdXRpb25zLCBJbmMuMSMw
IQYDVQQDExpHVEUgQ3liZXJUcnVzdCBHbG9iYWwgUm9vdIICAaUwRQYDVR0fBD4w
PDA6oDigNoY0aHR0cDovL3d3dy5wdWJsaWMtdHJ1c3QuY29tL2NnaS1iaW4vQ1JM
LzIwMTgvY2RwLmNybDAdBgNVHQ4EFgQU/ju0BEIfiVLaCpI5pula3TZUU4UwDQYJ
KoZIhvcNAQEFBQADgYEAAAkhwExAXbbAMVjC6jkUA87PE8u3yesexpEFdWWyeNGE
LK+NFdRa3gz4FepqywKlKiLP7RYDx9tX63ipSidnsFQZOD2INg3Xceo2MnzCU/T/
pHwiS2EUenmHFIDvUNPB3RYFnAy5hzPu4EvU4b9Ya2vXkPEPaMNFDbVHDnOuYLs=
-----END CERTIFICATE-----
Certificate:
    Data:
        Version: 3 (0x2)
        Serial Number: 120000565 (0x7271035)
        Signature Algorithm: sha1WithRSAEncryption
        Issuer: C=US, O=GTE Corporation, OU=GTE CyberTrust Solutions, Inc., CN=GTE CyberTrust Global Root
        Validity
            Not Before: Oct 25 10:51:54 2006 GMT
            Not After : Oct 25 10:51:03 2013 GMT
        Subject: C=US, O=Wells Fargo, OU=Wells Fargo Certification Authority, CN=Wells Fargo Certificate Authority 01
        Subject Public Key Info:
            Public Key Algorithm: rsaEncryption
            RSA Public Key: (2048 bit)
                Modulus (2048 bit):
                    00:9d:29:d5:b9:ce:45:13:9f:2c:2e:1e:01:13:50:
                    54:f7:61:37:b0:52:f8:78:e3:28:b3:a3:b2:9c:93:
                    8f:af:1a:67:58:0a:32:92:53:db:19:ab:68:ef:4a:
                    39:9e:d2:9e:20:c9:c9:6b:89:59:44:96:cc:11:b5:
                    79:3b:f1:13:56:11:81:67:ba:61:6a:f5:47:75:c7:
                    64:c1:b1:d1:61:27:2c:24:bb:90:ba:d7:3c:ec:37:
                    67:e3:8b:f1:91:18:9a:49:c7:2a:96:4d:95:61:85:
                    fe:9f:d4:20:f7:b4:d5:4e:03:93:a6:05:a7:7d:da:
                    09:4b:82:1e:a5:8d:71:3d:29:d7:2f:3a:5a:06:69:
                    1b:45:eb:29:8e:39:87:b7:a3:66:ce:64:50:4c:5a:
                    6c:39:20:9a:9c:cc:5f:42:e2:a1:e6:a1:f6:e9:91:
                    54:30:2f:9d:b5:d9:3a:f4:43:d9:b3:7d:7c:f2:6c:
                    94:35:2f:90:35:b8:d3:72:18:9f:a3:94:49:06:98:
                    1f:75:89:27:ee:f4:6b:59:e3:07:dd:5b:a9:0e:7c:
                    03:f5:ee:6d:40:c2:c6:2e:67:9f:5b:34:c8:cd:37:
                    84:09:62:78:e9:82:19:4c:8e:6c:e7:77:42:f7:26:
                    94:82:8c:4f:d2:95:69:91:49:f9:2a:a8:b1:88:b4:
                    97:09
                Exponent: 65537 (0x10001)
        X509v3 extensions:
            X509v3 Basic Constraints: critical
                CA:TRUE, pathlen:0
            X509v3 Certificate Policies: 
                Policy: 1.3.6.1.4.1.6334.1.0
                  CPS: http://www.public-trust.com/CPS/OmniRoot.html

            X509v3 Key Usage: critical
                Digital Signature, Non Repudiation, Key Encipherment, Certificate Sign, CRL Sign
            X509v3 Authority Key Identifier: 
                keyid:A6:0C:1D:9F:61:FF:07:17:B5:BF:38:46:DB:43:30:D5:8E:B0:52:06
                DirName:/C=US/O=GTE Corporation/OU=GTE CyberTrust Solutions, Inc./CN=GTE CyberTrust Global Root
                serial:01:A5

            X509v3 CRL Distribution Points: 
                URI:http://www.public-trust.com/cgi-bin/CRL/2018/cdp.crl

            X509v3 Subject Key Identifier: 
                FE:3B:B4:04:42:1F:89:52:DA:0A:92:39:A6:E9:5A:DD:36:54:53:85
    Signature Algorithm: sha1WithRSAEncryption
        00:09:21:c0:4c:40:5d:b6:c0:31:58:c2:ea:39:14:03:ce:cf:
        13:cb:b7:c9:eb:1e:c6:91:05:75:65:b2:78:d1:84:2c:af:8d:
        15:d4:5a:de:0c:f8:15:ea:6a:cb:02:a5:2a:22:cf:ed:16:03:
        c7:db:57:eb:78:a9:4a:27:67:b0:54:19:38:3d:88:36:0d:d7:
        71:ea:36:32:7c:c2:53:f4:ff:a4:7c:22:4b:61:14:7a:79:87:
        14:80:ef:50:d3:c1:dd:16:05:9c:0c:b9:87:33:ee:e0:4b:d4:
        e1:bf:58:6b:6b:d7:90:f1:0f:68:c3:45:0d:b5:47:0e:73:ae:
        60:bb
SHA1 Fingerprint=CA:25:54:C8:C6:C4:AA:FA:BD:82:3C:CB:62:00:A4:F2:A6:9B:3B:0F
