-----BEGIN CERTIFICATE-----
MIIEnDCCBAWgAwIBAgIQdTN9mrDhIzuuLX3kRpFi1DANBgkqhkiG9w0BAQUFADBf
MQswCQYDVQQGEwJVUzEXMBUGA1UEChMOVmVyaVNpZ24sIEluYy4xNzA1BgNVBAsT
LkNsYXNzIDMgUHVibGljIFByaW1hcnkgQ2VydGlmaWNhdGlvbiBBdXRob3JpdHkw
HhcNMDUwMTE5MDAwMDAwWhcNMTUwMTE4MjM1OTU5WjCBsDELMAkGA1UEBhMCVVMx
FzAVBgNVBAoTDlZlcmlTaWduLCBJbmMuMR8wHQYDVQQLExZWZXJpU2lnbiBUcnVz
dCBOZXR3b3JrMTswOQYDVQQLEzJUZXJtcyBvZiB1c2UgYXQgaHR0cHM6Ly93d3cu
dmVyaXNpZ24uY29tL3JwYSAoYykwNTEqMCgGA1UEAxMhVmVyaVNpZ24gQ2xhc3Mg
MyBTZWN1cmUgU2VydmVyIENBMIIBIjANBgkqhkiG9w0BAQEFAAOCAQ8AMIIBCgKC
AQEAlcMhEo5AxQ0BX3ZeZpTZcyxYGSK4yfx6OZAqd3J8HT732FXjr0LLhzAC3Fus
cOa4RLQrNeuT0hcFfstG1lxToDJRnXRkWPkMmgDqXkRJZHL0zRDihQr5NO6ziGap
paRa0A6Yf1gNK1K7hql+LvqySHyN2y1fAXWijQY7i7RhB8m+Ipn4G9G1V2YETTX0
kXGWtZkIJZuXyDrzILHdnpgMSmO3ps6wAc74k2rzDG6fsemEe4GYQeaB3D0s57Rr
4578CBbXs9W5ZhKZfG1xyE2+xw/j+zet1XWHIWuG0EQUWlR5OZZpVsm5Mc2JYVjh
2XYFBa33uQKvp/1HkaIiNFox0QIDAQABo4IBgTCCAX0wEgYDVR0TAQH/BAgwBgEB
/wIBADBEBgNVHSAEPTA7MDkGC2CGSAGG+EUBBxcDMCowKAYIKwYBBQUHAgEWHGh0
dHBzOi8vd3d3LnZlcmlzaWduLmNvbS9ycGEwMQYDVR0fBCowKDAmoCSgIoYgaHR0
cDovL2NybC52ZXJpc2lnbi5jb20vcGNhMy5jcmwwDgYDVR0PAQH/BAQDAgEGMBEG
CWCGSAGG+EIBAQQEAwIBBjApBgNVHREEIjAgpB4wHDEaMBgGA1UEAxMRQ2xhc3Mz
Q0EyMDQ4LTEtNDUwHQYDVR0OBBYEFG/sr6DdiqTv9SoQZy0/VYK81+8lMIGABgNV
HSMEeTB3oWOkYTBfMQswCQYDVQQGEwJVUzEXMBUGA1UEChMOVmVyaVNpZ24sIElu
Yy4xNzA1BgNVBAsTLkNsYXNzIDMgUHVibGljIFByaW1hcnkgQ2VydGlmaWNhdGlv
biBBdXRob3JpdHmCEHC65B0Q2Sk0tjjKewPMur8wDQYJKoZIhvcNAQEFBQADgYEA
w34IRl2RNs9n3Nenr6+4IsOLBHTTsWC85v63RBKBWzFzFGNWxnIu0RoDQ1w4ClBK
Tc3athmo9JkNr+P32PF1KGX2av6b9L1S2T/L2hbLpZ4ujmZSeD0m+v6UNohKlV4q
TBnvbvqCPy0D79YoszcYz0KyNCFkR9MgazpM3OYDkAw=
-----END CERTIFICATE-----
Certificate:
    Data:
        Version: 3 (0x2)
        Serial Number:
            75:33:7d:9a:b0:e1:23:3b:ae:2d:7d:e4:46:91:62:d4
        Signature Algorithm: sha1WithRSAEncryption
        Issuer: C=US, O=VeriSign, Inc., OU=Class 3 Public Primary Certification Authority
        Validity
            Not Before: Jan 19 00:00:00 2005 GMT
            Not After : Jan 18 23:59:59 2015 GMT
        Subject: C=US, O=VeriSign, Inc., OU=VeriSign Trust Network, OU=Terms of use at https://www.verisign.com/rpa (c)05, CN=VeriSign Class 3 Secure Server CA
        Subject Public Key Info:
            Public Key Algorithm: rsaEncryption
            RSA Public Key: (2048 bit)
                Modulus (2048 bit):
                    00:95:c3:21:12:8e:40:c5:0d:01:5f:76:5e:66:94:
                    d9:73:2c:58:19:22:b8:c9:fc:7a:39:90:2a:77:72:
                    7c:1d:3e:f7:d8:55:e3:af:42:cb:87:30:02:dc:5b:
                    ac:70:e6:b8:44:b4:2b:35:eb:93:d2:17:05:7e:cb:
                    46:d6:5c:53:a0:32:51:9d:74:64:58:f9:0c:9a:00:
                    ea:5e:44:49:64:72:f4:cd:10:e2:85:0a:f9:34:ee:
                    b3:88:66:a9:a5:a4:5a:d0:0e:98:7f:58:0d:2b:52:
                    bb:86:a9:7e:2e:fa:b2:48:7c:8d:db:2d:5f:01:75:
                    a2:8d:06:3b:8b:b4:61:07:c9:be:22:99:f8:1b:d1:
                    b5:57:66:04:4d:35:f4:91:71:96:b5:99:08:25:9b:
                    97:c8:3a:f3:20:b1:dd:9e:98:0c:4a:63:b7:a6:ce:
                    b0:01:ce:f8:93:6a:f3:0c:6e:9f:b1:e9:84:7b:81:
                    98:41:e6:81:dc:3d:2c:e7:b4:6b:e3:9e:fc:08:16:
                    d7:b3:d5:b9:66:12:99:7c:6d:71:c8:4d:be:c7:0f:
                    e3:fb:37:ad:d5:75:87:21:6b:86:d0:44:14:5a:54:
                    79:39:96:69:56:c9:b9:31:cd:89:61:58:e1:d9:76:
                    05:05:ad:f7:b9:02:af:a7:fd:47:91:a2:22:34:5a:
                    31:d1
                Exponent: 65537 (0x10001)
        X509v3 extensions:
            X509v3 Basic Constraints: critical
                CA:TRUE, pathlen:0
            X509v3 Certificate Policies: 
                Policy: 2.16.840.1.113733.1.7.23.3
                  CPS: https://www.verisign.com/rpa

            X509v3 CRL Distribution Points: 
                URI:http://crl.verisign.com/pca3.crl

            X509v3 Key Usage: critical
                Certificate Sign, CRL Sign
            Netscape Cert Type: 
                SSL CA, S/MIME CA
            X509v3 Subject Alternative Name: 
                DirName:/CN=Class3CA2048-1-45
            X509v3 Subject Key Identifier: 
                6F:EC:AF:A0:DD:8A:A4:EF:F5:2A:10:67:2D:3F:55:82:BC:D7:EF:25
            X509v3 Authority Key Identifier: 
                DirName:/C=US/O=VeriSign, Inc./OU=Class 3 Public Primary Certification Authority
                serial:70:BA:E4:1D:10:D9:29:34:B6:38:CA:7B:03:CC:BA:BF

    Signature Algorithm: sha1WithRSAEncryption
        c3:7e:08:46:5d:91:36:cf:67:dc:d7:a7:af:af:b8:22:c3:8b:
        04:74:d3:b1:60:bc:e6:fe:b7:44:12:81:5b:31:73:14:63:56:
        c6:72:2e:d1:1a:03:43:5c:38:0a:50:4a:4d:cd:da:b6:19:a8:
        f4:99:0d:af:e3:f7:d8:f1:75:28:65:f6:6a:fe:9b:f4:bd:52:
        d9:3f:cb:da:16:cb:a5:9e:2e:8e:66:52:78:3d:26:fa:fe:94:
        36:88:4a:95:5e:2a:4c:19:ef:6e:fa:82:3f:2d:03:ef:d6:28:
        b3:37:18:cf:42:b2:34:21:64:47:d3:20:6b:3a:4c:dc:e6:03:
        90:0c
SHA1 Fingerprint=18:85:90:E9:48:78:47:8E:33:B6:19:4E:59:FB:BB:28:FF:08:88:D5
